target datalayout = "e-m:e-p270:32:32-p271:32:32-p272:64:64-i64:64-i128:128-f80:128-n8:16:32:64-S128"
target triple = "x86_64-unknown-linux-gnu"

%class.mpz = type { i32, i8, ptr }
%class.svector = type { %class.vector }
%class.vector = type { ptr }
%"class.polynomial::manager::factors" = type <{ %class.vector.0, %class.svector, ptr, %class.mpz, i32, [4 x i8] }>
%class.vector.0 = type { ptr }
%"class.polynomial::manager" = type { ptr }
%"struct.polynomial::manager::imp" = type { ptr, ptr, %class.mpzzp_manager, %"class.upolynomial::manager", ptr, %class.ptr_vector, %class.id_gen, ptr, ptr, %class.mpz, ptr, %"class.polynomial::monomial2pos", %"class.polynomial::tmp_monomial", %class.svector.1, %class.svector.1, %class.ptr_vector.4, %class.svector, i8, i8, %"class.polynomial::manager::imp::som_buffer", %"class.polynomial::manager::imp::som_buffer", %"class.polynomial::manager::imp::cheap_som_buffer", %"class.polynomial::manager::imp::cheap_som_buffer", %class.vector.6, %class.svector, %class.svector.7, %class.svector, %"class.polynomial::manager::imp::som_buffer_vector", %"class.polynomial::manager::imp::newton_interpolator_vector", %class.scoped_ptr_vector, %"class.polynomial::manager::imp::var_max_degree", %"struct.polynomial::manager::imp::var_pos", %"class.polynomial::manager::imp::som_buffer_vector" }
%class.mpzzp_manager = type { ptr, i8, %class.mpz, %class.mpz, %class.mpz, i8, %class.mpz, %class.mpz, %class.mpz, %class.mpz }
%"class.upolynomial::manager" = type { %"class.upolynomial::core_manager", %class.svector.1, %class.svector.1, %class.svector.1, %class.svector.1, %class.svector.1 }
%"class.upolynomial::core_manager" = type { ptr, %class.mpzzp_manager, %class.svector.1, %class.svector.1, %class.svector.1, %class.svector.1, %class.svector.1, %class.svector.1, %class.svector.1, [6 x %class.svector.1], %class.svector.1, %class.svector.1, %class.svector.1 }
%class.ptr_vector = type { %class.vector.3 }
%class.vector.3 = type { ptr }
%class.id_gen = type { i32, %class.svector }
%"class.polynomial::monomial2pos" = type { %class.svector }
%"class.polynomial::tmp_monomial" = type <{ ptr, i32, [4 x i8] }>
%class.svector.1 = type { %class.vector.2 }
%class.vector.2 = type { ptr }
%class.ptr_vector.4 = type { %class.vector.5 }
%class.vector.5 = type { ptr }
%"class.polynomial::manager::imp::som_buffer" = type { ptr, %"class.polynomial::monomial2pos", %class.svector.1, %class.ptr_vector.4 }
%"class.polynomial::manager::imp::cheap_som_buffer" = type { ptr, %class.svector.1, %class.ptr_vector.4 }
%class.vector.6 = type { ptr }
%class.svector.7 = type { %class.vector.8 }
%class.vector.8 = type { ptr }
%"class.polynomial::manager::imp::newton_interpolator_vector" = type { ptr, %class.ptr_vector.11 }
%class.ptr_vector.11 = type { %class.vector.12 }
%class.vector.12 = type { ptr }
%class.scoped_ptr_vector = type { %class.ptr_vector.13 }
%class.ptr_vector.13 = type { %class.vector.14 }
%class.vector.14 = type { ptr }
%"class.polynomial::manager::imp::var_max_degree" = type { %class.svector, %class.svector }
%"struct.polynomial::manager::imp::var_pos" = type { %class.svector }
%"class.polynomial::manager::imp::som_buffer_vector" = type { ptr, %class.ptr_vector.9 }
%class.ptr_vector.9 = type { %class.vector.10 }
%class.vector.10 = type { ptr }
%"class.polynomial::polynomial" = type { i32, i32, i32, ptr, ptr }

; Function Attrs: mustprogress nounwind uwtable
define linkonce_odr hidden void @_ZSt9__advanceIPPN10polynomial10polynomialElEvRT_T0_St26random_access_iterator_tag(ptr noundef nonnull align 8 dereferenceable(8) %__i, i64 noundef %__n) #4 comdat {
entry:
  %__i.addr = alloca ptr, align 8
  %__n.addr = alloca i64, align 8
  store ptr %__i, ptr %__i.addr, align 8
  store i64 %__n, ptr %__n.addr, align 8
  %0 = load i64, ptr %__n.addr, align 8
  %1 = call i1 @llvm.is.constant.i64(i64 %0)
  br i1 %1, label %land.lhs.true, label %if.else

land.lhs.true:                                    ; preds = %entry
  %2 = load i64, ptr %__n.addr, align 8
  %cmp = icmp eq i64 %2, 1
  br i1 %cmp, label %if.then, label %if.else

if.then:                                          ; preds = %land.lhs.true
  %3 = load ptr, ptr %__i.addr, align 8
  %4 = load ptr, ptr %3, align 8
  %incdec.ptr = getelementptr inbounds ptr, ptr %4, i32 1
  store ptr %incdec.ptr, ptr %3, align 8
  br label %if.end6

if.else:                                          ; preds = %land.lhs.true, %entry
  %5 = load i64, ptr %__n.addr, align 8
  %6 = call i1 @llvm.is.constant.i64(i64 %5)
  br i1 %6, label %land.lhs.true1, label %if.else5

land.lhs.true1:                                   ; preds = %if.else
  %7 = load i64, ptr %__n.addr, align 8
  %cmp2 = icmp eq i64 %7, -1
  br i1 %cmp2, label %if.then3, label %if.else5

if.then3:                                         ; preds = %land.lhs.true1
  %8 = load ptr, ptr %__i.addr, align 8
  %9 = load ptr, ptr %8, align 8
  %incdec.ptr4 = getelementptr inbounds ptr, ptr %9, i32 -1
  store ptr %incdec.ptr4, ptr %8, align 8
  br label %if.end

if.else5:                                         ; preds = %land.lhs.true1, %if.else
  %10 = load i64, ptr %__n.addr, align 8
  %11 = load ptr, ptr %__i.addr, align 8
  %12 = load ptr, ptr %11, align 8
  %add.ptr = getelementptr inbounds ptr, ptr %12, i64 %10
  store ptr %add.ptr, ptr %11, align 8
  br label %if.end

if.end:                                           ; preds = %if.else5, %if.then3
  br label %if.end6

if.end6:                                          ; preds = %if.end, %if.then
  ret void
}

; Function Attrs: mustprogress nounwind uwtable
define linkonce_odr hidden void @_ZSt19__iterator_categoryIPPN10polynomial10polynomialEENSt15iterator_traitsIT_E17iterator_categoryERKS5_(ptr noundef nonnull align 8 dereferenceable(8) %0) #4 comdat {
entry:
  %.addr = alloca ptr, align 8
  store ptr %0, ptr %.addr, align 8
  ret void
}

; Function Attrs: mustprogress uwtable
define linkonce_odr hidden void @_ZSt7advanceIPPN10polynomial10polynomialEjEvRT_T0_(ptr noundef nonnull align 8 dereferenceable(8) %__i, i32 noundef %__n) #5 comdat {
entry:
  %__i.addr = alloca ptr, align 8
  %__n.addr = alloca i32, align 4
  %__d = alloca i64, align 8
  store ptr %__i, ptr %__i.addr, align 8
  store i32 %__n, ptr %__n.addr, align 4
  %0 = load i32, ptr %__n.addr, align 4
  %conv = zext i32 %0 to i64
  store i64 %conv, ptr %__d, align 8
  %1 = load ptr, ptr %__i.addr, align 8
  %2 = load i64, ptr %__d, align 8
  %3 = load ptr, ptr %__i.addr, align 8
  call void @_ZSt19__iterator_categoryIPPN10polynomial10polynomialEENSt15iterator_traitsIT_E17iterator_categoryERKS5_(ptr noundef nonnull align 8 dereferenceable(8) %3)
  call void @_ZSt9__advanceIPPN10polynomial10polynomialElEvRT_T0_St26random_access_iterator_tag(ptr noundef nonnull align 8 dereferenceable(8) %1, i64 noundef %2)
  ret void
}

; Function Attrs: mustprogress uwtable
define linkonce_odr hidden noundef ptr @_ZNSt14_Destroy_n_auxILb1EE11__destroy_nIPPN10polynomial10polynomialEjEET_S6_T0_(ptr noundef %__first, i32 noundef %__count) #5 comdat align 2 {
entry:
  %__first.addr = alloca ptr, align 8
  %__count.addr = alloca i32, align 4
  store ptr %__first, ptr %__first.addr, align 8
  store i32 %__count, ptr %__count.addr, align 4
  %0 = load i32, ptr %__count.addr, align 4
  call void @_ZSt7advanceIPPN10polynomial10polynomialEjEvRT_T0_(ptr noundef nonnull align 8 dereferenceable(8) %__first.addr, i32 noundef %0)
  %1 = load ptr, ptr %__first.addr, align 8
  ret ptr %1
}

; Function Attrs: mustprogress uwtable
define linkonce_odr hidden noundef ptr @_ZSt10_Destroy_nIPPN10polynomial10polynomialEjET_S4_T0_(ptr noundef %__first, i32 noundef %__count) #5 comdat {
entry:
  %__first.addr = alloca ptr, align 8
  %__count.addr = alloca i32, align 4
  store ptr %__first, ptr %__first.addr, align 8
  store i32 %__count, ptr %__count.addr, align 4
  %0 = load ptr, ptr %__first.addr, align 8
  %1 = load i32, ptr %__count.addr, align 4
  %call = call noundef ptr @_ZNSt14_Destroy_n_auxILb1EE11__destroy_nIPPN10polynomial10polynomialEjEET_S6_T0_(ptr noundef %0, i32 noundef %1)
  ret ptr %call
}

; Function Attrs: mustprogress uwtable
define linkonce_odr hidden noundef ptr @_ZSt9destroy_nIPPN10polynomial10polynomialEjET_S4_T0_(ptr noundef %__first, i32 noundef %__count) #5 comdat {
entry:
  %__first.addr = alloca ptr, align 8
  %__count.addr = alloca i32, align 4
  store ptr %__first, ptr %__first.addr, align 8
  store i32 %__count, ptr %__count.addr, align 4
  %0 = load ptr, ptr %__first.addr, align 8
  %1 = load i32, ptr %__count.addr, align 4
  %call = call noundef ptr @_ZSt10_Destroy_nIPPN10polynomial10polynomialEjET_S4_T0_(ptr noundef %0, i32 noundef %1)
  ret ptr %call
}

; Function Attrs: mustprogress nounwind uwtable
define linkonce_odr hidden noundef i32 @_ZNK10polynomial10polynomial9ref_countEv(ptr noundef nonnull align 8 dereferenceable(32) %this) #4 comdat align 2 {
entry:
  %this.addr = alloca ptr, align 8
  store ptr %this, ptr %this.addr, align 8
  %this1 = load ptr, ptr %this.addr, align 8
  %m_ref_count = getelementptr inbounds %"class.polynomial::polynomial", ptr %this1, i32 0, i32 0
  %0 = load i32, ptr %m_ref_count, align 8
  ret i32 %0
}

; Function Attrs: mustprogress nounwind uwtable
define linkonce_odr hidden void @_ZN10polynomial10polynomial7dec_refEv(ptr noundef nonnull align 8 dereferenceable(32) %this) #4 comdat align 2 {
entry:
  %this.addr = alloca ptr, align 8
  store ptr %this, ptr %this.addr, align 8
  %this1 = load ptr, ptr %this.addr, align 8
  %m_ref_count = getelementptr inbounds %"class.polynomial::polynomial", ptr %this1, i32 0, i32 0
  %0 = load i32, ptr %m_ref_count, align 8
  %dec = add i32 %0, -1
  store i32 %dec, ptr %m_ref_count, align 8
  ret void
}

; Function Attrs: mustprogress nounwind uwtable
define linkonce_odr hidden noundef nonnull align 8 dereferenceable(600) ptr @_ZNK13mpzzp_manager1mEv(ptr noundef nonnull align 8 dereferenceable(136) %this) #4 comdat align 2 {
entry:
  %this.addr = alloca ptr, align 8
  store ptr %this, ptr %this.addr, align 8
  %this1 = load ptr, ptr %this.addr, align 8
  %m_manager = getelementptr inbounds %class.mpzzp_manager, ptr %this1, i32 0, i32 0
  %0 = load ptr, ptr %m_manager, align 8
  ret ptr %0
}

; Function Attrs: mustprogress uwtable
define linkonce_odr hidden void @_ZN6vectorIPN10polynomial10polynomialELb1EjE16destroy_elementsEv(ptr noundef nonnull align 8 dereferenceable(8) %this) #5 comdat align 2 {
entry:
  %this.addr = alloca ptr, align 8
  store ptr %this, ptr %this.addr, align 8
  %this1 = load ptr, ptr %this.addr, align 8
  %m_data = getelementptr inbounds %class.vector.0, ptr %this1, i32 0, i32 0
  %0 = load ptr, ptr %m_data, align 8
  %call = call noundef i32 @_ZNK6vectorIPN10polynomial10polynomialELb1EjE4sizeEv(ptr noundef nonnull align 8 dereferenceable(8) %this1)
  %call2 = call noundef ptr @_ZSt9destroy_nIPPN10polynomial10polynomialEjET_S4_T0_(ptr noundef %0, i32 noundef %call)
  ret void
}

; Function Attrs: mustprogress uwtable
define linkonce_odr hidden void @_ZN10polynomial7manager3imp7dec_refEPNS_10polynomialE(ptr noundef nonnull align 8 dereferenceable(824) %this, ptr noundef %p) #5 comdat align 2 {
entry:
  %this.addr = alloca ptr, align 8
  %p.addr = alloca ptr, align 8
  store ptr %this, ptr %this.addr, align 8
  store ptr %p, ptr %p.addr, align 8
  %this1 = load ptr, ptr %this.addr, align 8
  %0 = load ptr, ptr %p.addr, align 8
  call void @_ZN10polynomial10polynomial7dec_refEv(ptr noundef nonnull align 8 dereferenceable(32) %0)
  %1 = load ptr, ptr %p.addr, align 8
  %call = call noundef i32 @_ZNK10polynomial10polynomial9ref_countEv(ptr noundef nonnull align 8 dereferenceable(32) %1)
  %cmp = icmp eq i32 %call, 0
  br i1 %cmp, label %if.then, label %if.end

if.then:                                          ; preds = %entry
  %2 = load ptr, ptr %p.addr, align 8
  call void @_ZN10polynomial7manager3imp3delEPNS_10polynomialE(ptr noundef nonnull align 8 dereferenceable(824) %this1, ptr noundef %2)
  br label %if.end

if.end:                                           ; preds = %if.then, %entry
  ret void
}

; Function Attrs: mustprogress nounwind uwtable
define linkonce_odr hidden void @_ZN11mpz_managerILb0EE3setER3mpzi(ptr noundef nonnull align 8 dereferenceable(600) %this, ptr noundef nonnull align 8 dereferenceable(16) %a, i32 noundef %val) #4 comdat align 2 {
entry:
  %this.addr = alloca ptr, align 8
  %a.addr = alloca ptr, align 8
  %val.addr = alloca i32, align 4
  store ptr %this, ptr %this.addr, align 8
  store ptr %a, ptr %a.addr, align 8
  store i32 %val, ptr %val.addr, align 4
  %0 = load i32, ptr %val.addr, align 4
  %1 = load ptr, ptr %a.addr, align 8
  %m_val = getelementptr inbounds %class.mpz, ptr %1, i32 0, i32 0
  store i32 %0, ptr %m_val, align 8
  %2 = load ptr, ptr %a.addr, align 8
  %m_kind = getelementptr inbounds %class.mpz, ptr %2, i32 0, i32 1
  %bf.load = load i8, ptr %m_kind, align 4
  %bf.clear = and i8 %bf.load, -2
  %bf.set = or i8 %bf.clear, 0
  store i8 %bf.set, ptr %m_kind, align 4
  ret void
}

; Function Attrs: mustprogress uwtable
define hidden noundef nonnull align 8 dereferenceable(600) ptr @_ZNK10polynomial7manager1mEv(ptr noundef nonnull align 8 dereferenceable(8) %this) #5 align 2 {
entry:
  %this.addr = alloca ptr, align 8
  store ptr %this, ptr %this.addr, align 8
  %this1 = load ptr, ptr %this.addr, align 8
  %m_imp = getelementptr inbounds %"class.polynomial::manager", ptr %this1, i32 0, i32 0
  %0 = load ptr, ptr %m_imp, align 8
  %m_manager = getelementptr inbounds %"struct.polynomial::manager::imp", ptr %0, i32 0, i32 2
  %call = call noundef nonnull align 8 dereferenceable(600) ptr @_ZNK13mpzzp_manager1mEv(ptr noundef nonnull align 8 dereferenceable(136) %m_manager)
  ret ptr %call
}

; Function Attrs: mustprogress nounwind uwtable
define linkonce_odr hidden void @_ZN6vectorIjLb0EjE5resetEv(ptr noundef nonnull align 8 dereferenceable(8) %this) #4 comdat align 2 {
entry:
  %this.addr = alloca ptr, align 8
  store ptr %this, ptr %this.addr, align 8
  %this1 = load ptr, ptr %this.addr, align 8
  %m_data = getelementptr inbounds %class.vector, ptr %this1, i32 0, i32 0
  %0 = load ptr, ptr %m_data, align 8
  %tobool = icmp ne ptr %0, null
  br i1 %tobool, label %if.then, label %if.end

if.then:                                          ; preds = %entry
  %m_data2 = getelementptr inbounds %class.vector, ptr %this1, i32 0, i32 0
  %1 = load ptr, ptr %m_data2, align 8
  %arrayidx = getelementptr inbounds i32, ptr %1, i64 -1
  store i32 0, ptr %arrayidx, align 4
  br label %if.end

if.end:                                           ; preds = %if.then, %entry
  ret void
}

; Function Attrs: mustprogress uwtable
define linkonce_odr hidden void @_ZN6vectorIPN10polynomial10polynomialELb1EjE5resetEv(ptr noundef nonnull align 8 dereferenceable(8) %this) #5 comdat align 2 {
entry:
  %this.addr = alloca ptr, align 8
  store ptr %this, ptr %this.addr, align 8
  %this1 = load ptr, ptr %this.addr, align 8
  %m_data = getelementptr inbounds %class.vector.0, ptr %this1, i32 0, i32 0
  %0 = load ptr, ptr %m_data, align 8
  %tobool = icmp ne ptr %0, null
  br i1 %tobool, label %if.then, label %if.end

if.then:                                          ; preds = %entry
  call void @_ZN6vectorIPN10polynomial10polynomialELb1EjE16destroy_elementsEv(ptr noundef nonnull align 8 dereferenceable(8) %this1)
  %m_data2 = getelementptr inbounds %class.vector.0, ptr %this1, i32 0, i32 0
  %1 = load ptr, ptr %m_data2, align 8
  %arrayidx = getelementptr inbounds i32, ptr %1, i64 -1
  store i32 0, ptr %arrayidx, align 4
  br label %if.end

if.end:                                           ; preds = %if.then, %entry
  ret void
}

; Function Attrs: mustprogress uwtable
define hidden void @_ZN10polynomial7manager7dec_refEPNS_10polynomialE(ptr noundef nonnull align 8 dereferenceable(8) %this, ptr noundef %p) #5 align 2 {
entry:
  %this.addr = alloca ptr, align 8
  %p.addr = alloca ptr, align 8
  store ptr %this, ptr %this.addr, align 8
  store ptr %p, ptr %p.addr, align 8
  %this1 = load ptr, ptr %this.addr, align 8
  %0 = load ptr, ptr %p.addr, align 8
  %tobool = icmp ne ptr %0, null
  br i1 %tobool, label %if.then, label %if.end

if.then:                                          ; preds = %entry
  %m_imp = getelementptr inbounds %"class.polynomial::manager", ptr %this1, i32 0, i32 0
  %1 = load ptr, ptr %m_imp, align 8
  %2 = load ptr, ptr %p.addr, align 8
  call void @_ZN10polynomial7manager3imp7dec_refEPNS_10polynomialE(ptr noundef nonnull align 8 dereferenceable(824) %1, ptr noundef %2)
  br label %if.end

if.end:                                           ; preds = %if.then, %entry
  ret void
}

; Function Attrs: mustprogress nounwind uwtable
define linkonce_odr hidden noundef nonnull align 8 dereferenceable(8) ptr @_ZN6vectorIPN10polynomial10polynomialELb1EjEixEj(ptr noundef nonnull align 8 dereferenceable(8) %this, i32 noundef %idx) #4 comdat align 2 {
entry:
  %this.addr = alloca ptr, align 8
  %idx.addr = alloca i32, align 4
  store ptr %this, ptr %this.addr, align 8
  store i32 %idx, ptr %idx.addr, align 4
  %this1 = load ptr, ptr %this.addr, align 8
  %m_data = getelementptr inbounds %class.vector.0, ptr %this1, i32 0, i32 0
  %0 = load ptr, ptr %m_data, align 8
  %1 = load i32, ptr %idx.addr, align 4
  %idxprom = zext i32 %1 to i64
  %arrayidx = getelementptr inbounds ptr, ptr %0, i64 %idxprom
  ret ptr %arrayidx
}

; Function Attrs: mustprogress nounwind uwtable
define linkonce_odr hidden noundef nonnull align 8 dereferenceable(8) ptr @_ZNK10polynomial7manager7factors1mEv(ptr noundef nonnull align 8 dereferenceable(44) %this) #4 comdat align 2 {
entry:
  %this.addr = alloca ptr, align 8
  store ptr %this, ptr %this.addr, align 8
  %this1 = load ptr, ptr %this.addr, align 8
  %m_manager = getelementptr inbounds %"class.polynomial::manager::factors", ptr %this1, i32 0, i32 2
  %0 = load ptr, ptr %m_manager, align 8
  ret ptr %0
}

; Function Attrs: mustprogress nounwind uwtable
define linkonce_odr hidden noundef i32 @_ZNK6vectorIPN10polynomial10polynomialELb1EjE4sizeEv(ptr noundef nonnull align 8 dereferenceable(8) %this) #4 comdat align 2 {
entry:
  %retval = alloca i32, align 4
  %this.addr = alloca ptr, align 8
  store ptr %this, ptr %this.addr, align 8
  %this1 = load ptr, ptr %this.addr, align 8
  %m_data = getelementptr inbounds %class.vector.0, ptr %this1, i32 0, i32 0
  %0 = load ptr, ptr %m_data, align 8
  %cmp = icmp eq ptr %0, null
  br i1 %cmp, label %if.then, label %if.end

if.then:                                          ; preds = %entry
  store i32 0, ptr %retval, align 4
  br label %return

if.end:                                           ; preds = %entry
  %m_data2 = getelementptr inbounds %class.vector.0, ptr %this1, i32 0, i32 0
  %1 = load ptr, ptr %m_data2, align 8
  %arrayidx = getelementptr inbounds i32, ptr %1, i64 -1
  %2 = load i32, ptr %arrayidx, align 4
  store i32 %2, ptr %retval, align 4
  br label %return

return:                                           ; preds = %if.end, %if.then
  %3 = load i32, ptr %retval, align 4
  ret i32 %3
}

; Function Attrs: mustprogress uwtable
define hidden void @_ZN10polynomial7manager7factors5resetEv(ptr noundef nonnull align 8 dereferenceable(44) %this) #5 align 2 {
entry:
  %this.addr = alloca ptr, align 8
  %i = alloca i32, align 4
  store ptr %this, ptr %this.addr, align 8
  %this1 = load ptr, ptr %this.addr, align 8
  store i32 0, ptr %i, align 4
  br label %for.cond

for.cond:                                         ; preds = %for.inc, %entry
  %0 = load i32, ptr %i, align 4
  %m_factors = getelementptr inbounds %"class.polynomial::manager::factors", ptr %this1, i32 0, i32 0
  %call = call noundef i32 @_ZNK6vectorIPN10polynomial10polynomialELb1EjE4sizeEv(ptr noundef nonnull align 8 dereferenceable(8) %m_factors)
  %cmp = icmp ult i32 %0, %call
  br i1 %cmp, label %for.body, label %for.end

for.body:                                         ; preds = %for.cond
  %call2 = call noundef nonnull align 8 dereferenceable(8) ptr @_ZNK10polynomial7manager7factors1mEv(ptr noundef nonnull align 8 dereferenceable(44) %this1)
  %m_factors3 = getelementptr inbounds %"class.polynomial::manager::factors", ptr %this1, i32 0, i32 0
  %1 = load i32, ptr %i, align 4
  %call4 = call noundef nonnull align 8 dereferenceable(8) ptr @_ZN6vectorIPN10polynomial10polynomialELb1EjEixEj(ptr noundef nonnull align 8 dereferenceable(8) %m_factors3, i32 noundef %1)
  %2 = load ptr, ptr %call4, align 8
  call void @_ZN10polynomial7manager7dec_refEPNS_10polynomialE(ptr noundef nonnull align 8 dereferenceable(8) %call2, ptr noundef %2)
  br label %for.inc

for.inc:                                          ; preds = %for.body
  %3 = load i32, ptr %i, align 4
  %inc = add i32 %3, 1
  store i32 %inc, ptr %i, align 4
  br label %for.cond, !llvm.loop !11

for.end:                                          ; preds = %for.cond
  %m_factors5 = getelementptr inbounds %"class.polynomial::manager::factors", ptr %this1, i32 0, i32 0
  call void @_ZN6vectorIPN10polynomial10polynomialELb1EjE5resetEv(ptr noundef nonnull align 8 dereferenceable(8) %m_factors5)
  %m_degrees = getelementptr inbounds %"class.polynomial::manager::factors", ptr %this1, i32 0, i32 1
  call void @_ZN6vectorIjLb0EjE5resetEv(ptr noundef nonnull align 8 dereferenceable(8) %m_degrees)
  %m_total_factors = getelementptr inbounds %"class.polynomial::manager::factors", ptr %this1, i32 0, i32 4
  store i32 0, ptr %m_total_factors, align 8
  %call6 = call noundef nonnull align 8 dereferenceable(8) ptr @_ZNK10polynomial7manager7factors1mEv(ptr noundef nonnull align 8 dereferenceable(44) %this1)
  %call7 = call noundef nonnull align 8 dereferenceable(600) ptr @_ZNK10polynomial7manager1mEv(ptr noundef nonnull align 8 dereferenceable(8) %call6)
  %m_constant = getelementptr inbounds %"class.polynomial::manager::factors", ptr %this1, i32 0, i32 3
  call void @_ZN11mpz_managerILb0EE3setER3mpzi(ptr noundef nonnull align 8 dereferenceable(600) %call7, ptr noundef nonnull align 8 dereferenceable(16) %m_constant, i32 noundef 1)
  ret void
}