; Function Attrs: mustprogress uwtable
define hidden void @_ZN10polynomial7manager7factors5resetEv(ptr nocapture noundef nonnull align 8 dereferenceable(44) %this) local_unnamed_addr #4 align 2 {
entry:
  %0 = load ptr, ptr %this, align 8
  %cmp.i18 = icmp eq ptr %0, null
  br i1 %cmp.i18, label %_ZN6vectorIPN10polynomial10polynomialELb1EjE5resetEv.exit, label %_ZNK6vectorIPN10polynomial10polynomialELb1EjE4sizeEv.exit.thread.lr.ph

_ZNK6vectorIPN10polynomial10polynomialELb1EjE4sizeEv.exit.thread.lr.ph: ; preds = %entry
  %m_manager.i = getelementptr inbounds i8, ptr %this, i64 16
  br label %_ZNK6vectorIPN10polynomial10polynomialELb1EjE4sizeEv.exit.thread

_ZNK6vectorIPN10polynomial10polynomialELb1EjE4sizeEv.exit.thread: ; preds = %_ZNK6vectorIPN10polynomial10polynomialELb1EjE4sizeEv.exit.thread.lr.ph, %_ZN10polynomial7manager7dec_refEPNS_10polynomialE.exit
  %indvars.iv = phi i64 [ 0, %_ZNK6vectorIPN10polynomial10polynomialELb1EjE4sizeEv.exit.thread.lr.ph ], [ %indvars.iv.next, %_ZN10polynomial7manager7dec_refEPNS_10polynomialE.exit ]
  %1 = phi ptr [ %0, %_ZNK6vectorIPN10polynomial10polynomialELb1EjE4sizeEv.exit.thread.lr.ph ], [ %8, %_ZN10polynomial7manager7dec_refEPNS_10polynomialE.exit ]
  %arrayidx.i = getelementptr inbounds i8, ptr %1, i64 -4
  %2 = load i32, ptr %arrayidx.i, align 4
  %3 = zext i32 %2 to i64
  %cmp16 = icmp ult i64 %indvars.iv, %3
  br i1 %cmp16, label %for.body, label %if.then.i6

for.body:                                         ; preds = %_ZNK6vectorIPN10polynomial10polynomialELb1EjE4sizeEv.exit.thread
  %arrayidx.i3 = getelementptr inbounds ptr, ptr %1, i64 %indvars.iv
  %4 = load ptr, ptr %arrayidx.i3, align 8
  %tobool.not.i = icmp eq ptr %4, null
  br i1 %tobool.not.i, label %_ZN10polynomial7manager7dec_refEPNS_10polynomialE.exit, label %if.then.i

if.then.i:                                        ; preds = %for.body
  %5 = load ptr, ptr %m_manager.i, align 8
  %6 = load ptr, ptr %5, align 8
  %7 = load i32, ptr %4, align 8
  %dec.i.i.i = add i32 %7, -1
  store i32 %dec.i.i.i, ptr %4, align 8
  %cmp.i.i = icmp eq i32 %dec.i.i.i, 0
  br i1 %cmp.i.i, label %if.then.i.i, label %_ZN10polynomial7manager7dec_refEPNS_10polynomialE.exit

if.then.i.i:                                      ; preds = %if.then.i
  tail call void @_ZN10polynomial7manager3imp3delEPNS_10polynomialE(ptr noundef nonnull align 8 dereferenceable(824) %6, ptr noundef nonnull %4)
  br label %_ZN10polynomial7manager7dec_refEPNS_10polynomialE.exit

_ZN10polynomial7manager7dec_refEPNS_10polynomialE.exit: ; preds = %for.body, %if.then.i, %if.then.i.i
  %indvars.iv.next = add nuw nsw i64 %indvars.iv, 1
  %8 = load ptr, ptr %this, align 8
  %cmp.i = icmp eq ptr %8, null
  br i1 %cmp.i, label %_ZN6vectorIPN10polynomial10polynomialELb1EjE5resetEv.exit, label %_ZNK6vectorIPN10polynomial10polynomialELb1EjE4sizeEv.exit.thread, !llvm.loop !11

if.then.i6:                                       ; preds = %_ZNK6vectorIPN10polynomial10polynomialELb1EjE4sizeEv.exit.thread
  %arrayidx.i.le = getelementptr inbounds i8, ptr %1, i64 -4
  store i32 0, ptr %arrayidx.i.le, align 4
  br label %_ZN6vectorIPN10polynomial10polynomialELb1EjE5resetEv.exit

_ZN6vectorIPN10polynomial10polynomialELb1EjE5resetEv.exit: ; preds = %_ZN10polynomial7manager7dec_refEPNS_10polynomialE.exit, %entry, %if.then.i6
  %m_degrees = getelementptr inbounds i8, ptr %this, i64 8
  %9 = load ptr, ptr %m_degrees, align 8
  %tobool.not.i9 = icmp eq ptr %9, null
  br i1 %tobool.not.i9, label %_ZN6vectorIjLb0EjE5resetEv.exit, label %if.then.i10

if.then.i10:                                      ; preds = %_ZN6vectorIPN10polynomial10polynomialELb1EjE5resetEv.exit
  %arrayidx.i11 = getelementptr inbounds i8, ptr %9, i64 -4
  store i32 0, ptr %arrayidx.i11, align 4
  br label %_ZN6vectorIjLb0EjE5resetEv.exit

_ZN6vectorIjLb0EjE5resetEv.exit:                  ; preds = %_ZN6vectorIPN10polynomial10polynomialELb1EjE5resetEv.exit, %if.then.i10
  %m_total_factors = getelementptr inbounds i8, ptr %this, i64 40
  store i32 0, ptr %m_total_factors, align 8
  %m_constant = getelementptr inbounds i8, ptr %this, i64 24
  store i32 1, ptr %m_constant, align 8
  %m_kind.i = getelementptr inbounds i8, ptr %this, i64 28
  %bf.load.i = load i8, ptr %m_kind.i, align 4
  %bf.clear.i = and i8 %bf.load.i, -2
  store i8 %bf.clear.i, ptr %m_kind.i, align 4
  ret void
}